; Function Attrs: mustprogress nofree norecurse nosync nounwind willreturn memory(read, argmem: readwrite, inaccessiblemem: none) uwtable
define internal fastcc range(i32 -1, 1) i32 @mbedtls_ssl_dtls_record_replay_check(ptr noundef captures(none) %0, ptr noundef nonnull %1) unnamed_addr #7 {
  %3 = getelementptr inbounds nuw i8, ptr %0, i64 192
  %4 = load ptr, ptr %3, align 8, !tbaa !38
  store ptr %1, ptr %3, align 8, !tbaa !38
  %5 = getelementptr inbounds nuw i8, ptr %1, i64 2
  %6 = load i8, ptr %5, align 1, !tbaa !32
  %7 = zext i8 %6 to i64
  %8 = shl nuw nsw i64 %7, 40
  %9 = getelementptr inbounds nuw i8, ptr %1, i64 3
  %10 = load i8, ptr %9, align 1, !tbaa !32
  %11 = zext i8 %10 to i64
  %12 = shl nuw nsw i64 %11, 32
  %13 = or disjoint i64 %12, %8
  %14 = getelementptr inbounds nuw i8, ptr %1, i64 4
  %15 = load i8, ptr %14, align 1, !tbaa !32
  %16 = zext i8 %15 to i64
  %17 = shl nuw nsw i64 %16, 24
  %18 = or disjoint i64 %13, %17
  %19 = getelementptr inbounds nuw i8, ptr %1, i64 5
  %20 = load i8, ptr %19, align 1, !tbaa !32
  %21 = zext i8 %20 to i64
  %22 = shl nuw nsw i64 %21, 16
  %23 = or disjoint i64 %18, %22
  %24 = getelementptr inbounds nuw i8, ptr %1, i64 6
  %25 = load i8, ptr %24, align 1, !tbaa !32
  %26 = zext i8 %25 to i64
  %27 = shl nuw nsw i64 %26, 8
  %28 = or disjoint i64 %23, %27
  %29 = getelementptr inbounds nuw i8, ptr %1, i64 7
  %30 = load i8, ptr %29, align 1, !tbaa !32
  %31 = zext i8 %30 to i64
  %32 = or disjoint i64 %28, %31
  %33 = load ptr, ptr %0, align 8, !tbaa !18
  %34 = getelementptr inbounds nuw i8, ptr %33, i64 15
  %35 = load i8, ptr %34, align 1, !tbaa !144
  %36 = icmp eq i8 %35, 0
  br i1 %36, label %mbedtls_ssl_dtls_replay_check.exit, label %37

37:                                               ; preds = %2
  %38 = getelementptr inbounds nuw i8, ptr %0, i64 288
  %39 = load i64, ptr %38, align 8, !tbaa !145
  %40 = icmp ugt i64 %32, %39
  br i1 %40, label %mbedtls_ssl_dtls_replay_check.exit, label %41

41:                                               ; preds = %37
  %42 = sub nuw i64 %39, %32
  %43 = icmp ugt i64 %42, 63
  br i1 %43, label %mbedtls_ssl_dtls_replay_check.exit, label %44

44:                                               ; preds = %41
  %45 = getelementptr inbounds nuw i8, ptr %0, i64 296
  %46 = load i64, ptr %45, align 8, !tbaa !146
  %47 = shl nuw i64 1, %42
  %48 = and i64 %46, %47
  %.not.i = icmp ne i64 %48, 0
  %..i = sext i1 %.not.i to i32
  br label %mbedtls_ssl_dtls_replay_check.exit

mbedtls_ssl_dtls_replay_check.exit:               ; preds = %2, %37, %41, %44
  %.0.i = phi i32 [ 0, %2 ], [ 0, %37 ], [ -1, %41 ], [ %..i, %44 ]
  store ptr %4, ptr %3, align 8, !tbaa !38
  ret i32 %.0.i
}